target datalayout = "e-m:e-p270:32:32-p271:32:32-p272:64:64-i64:64-i128:128-f80:128-n8:16:32:64-S128"
target triple = "x86_64-pc-linux-gnu"

%struct.jit_State = type { %struct.GCtrace, ptr, ptr, ptr, ptr, ptr, ptr, i32, i32, i32, i8, i8, %struct.IRType1, i8, %struct.FoldState, ptr, i32, i32, i32, i32, i32, i32, i32, [1 x i32], [5 x %union.TValue], [3 x %union.TValue], ptr, i32, i32, i32, i32, ptr, ptr, i32, i32, i8, ptr, i32, i32, i16, [101 x i16], [258 x i32], [15 x i32], [16 x ptr], [64 x %struct.HotPenalty], i32, [16 x %struct.BPropEntry], i32, %struct.ScEvEntry, ptr, i32, i32, i32, ptr, i32, i32, ptr, ptr, ptr, i64, i64, %union.TValue, ptr, i32, i32 }
%struct.GCtrace = type { %struct.GCRef, i8, i8, i16, i32, i32, %struct.GCRef, ptr, i32, i32, ptr, ptr, %struct.GCRef, %struct.MRef, i32, i32, ptr, i32, i16, i16, i16, i16, i16, i16, i16, i8, i8, i8, i8 }
%struct.GCRef = type { i64 }
%struct.MRef = type { i64 }
%struct.IRType1 = type { i8 }
%struct.FoldState = type { %union.IRIns, [2 x %union.IRIns], [2 x %union.IRIns] }
%union.IRIns = type { %struct.GCRef }
%struct.HotPenalty = type { %struct.MRef, i16, i16 }
%struct.BPropEntry = type { i16, i16, i32 }
%struct.ScEvEntry = type { %struct.MRef, i16, i16, i16, i16, %struct.IRType1, i8 }
%union.TValue = type { i64 }
%struct.SnapShot = type { i32, i16, i16, i8, i8, i8, i8 }
%struct.anon.0 = type { i32, %struct.IRType1, i8, i8, i8 }

; Function Attrs: nounwind uwtable
define internal void @loop_undo(ptr noundef %0, i32 noundef %1, i32 noundef %2, i32 noundef %3) #0 {
  %5 = alloca ptr, align 8
  %6 = alloca i32, align 4
  %7 = alloca i32, align 4
  %8 = alloca i32, align 4
  %9 = alloca i64, align 8
  %10 = alloca ptr, align 8
  %11 = alloca ptr, align 8
  %12 = alloca ptr, align 8
  %13 = alloca ptr, align 8
  store ptr %0, ptr %5, align 8, !tbaa !4
  store i32 %1, ptr %6, align 4, !tbaa !29
  store i32 %2, ptr %7, align 4, !tbaa !29
  store i32 %3, ptr %8, align 4, !tbaa !29
  call void @llvm.lifetime.start.p0(i64 8, ptr %9) #7
  call void @llvm.lifetime.start.p0(i64 8, ptr %10) #7
  %14 = load ptr, ptr %5, align 8, !tbaa !4
  %15 = getelementptr inbounds nuw %struct.jit_State, ptr %14, i32 0, i32 0
  %16 = getelementptr inbounds nuw %struct.GCtrace, ptr %15, i32 0, i32 10
  %17 = load ptr, ptr %16, align 8, !tbaa !60
  %18 = load i32, ptr %7, align 4, !tbaa !29
  %19 = sub i32 %18, 1
  %20 = zext i32 %19 to i64
  %21 = getelementptr inbounds nuw %struct.SnapShot, ptr %17, i64 %20
  store ptr %21, ptr %10, align 8, !tbaa !61
  call void @llvm.lifetime.start.p0(i64 8, ptr %11) #7
  %22 = load ptr, ptr %5, align 8, !tbaa !4
  %23 = getelementptr inbounds nuw %struct.jit_State, ptr %22, i32 0, i32 0
  %24 = getelementptr inbounds nuw %struct.GCtrace, ptr %23, i32 0, i32 11
  %25 = load ptr, ptr %24, align 8, !tbaa !62
  store ptr %25, ptr %11, align 8, !tbaa !63
  %26 = load ptr, ptr %11, align 8, !tbaa !63
  %27 = load ptr, ptr %5, align 8, !tbaa !4
  %28 = getelementptr inbounds nuw %struct.jit_State, ptr %27, i32 0, i32 0
  %29 = getelementptr inbounds nuw %struct.GCtrace, ptr %28, i32 0, i32 10
  %30 = load ptr, ptr %29, align 8, !tbaa !60
  %31 = getelementptr inbounds %struct.SnapShot, ptr %30, i64 0
  %32 = getelementptr inbounds nuw %struct.SnapShot, ptr %31, i32 0, i32 5
  %33 = load i8, ptr %32, align 2, !tbaa !64
  %34 = zext i8 %33 to i64
  %35 = getelementptr inbounds nuw i32, ptr %26, i64 %34
  %36 = load i32, ptr %35, align 4, !tbaa !29
  %37 = load ptr, ptr %11, align 8, !tbaa !63
  %38 = load ptr, ptr %10, align 8, !tbaa !61
  %39 = getelementptr inbounds nuw %struct.SnapShot, ptr %38, i32 0, i32 0
  %40 = load i32, ptr %39, align 4, !tbaa !66
  %41 = load ptr, ptr %10, align 8, !tbaa !61
  %42 = getelementptr inbounds nuw %struct.SnapShot, ptr %41, i32 0, i32 5
  %43 = load i8, ptr %42, align 2, !tbaa !64
  %44 = zext i8 %43 to i32
  %45 = add i32 %40, %44
  %46 = zext i32 %45 to i64
  %47 = getelementptr inbounds nuw i32, ptr %37, i64 %46
  store i32 %36, ptr %47, align 4, !tbaa !29
  %48 = load i32, ptr %8, align 4, !tbaa !29
  %49 = load ptr, ptr %5, align 8, !tbaa !4
  %50 = getelementptr inbounds nuw %struct.jit_State, ptr %49, i32 0, i32 0
  %51 = getelementptr inbounds nuw %struct.GCtrace, ptr %50, i32 0, i32 9
  store i32 %48, ptr %51, align 4, !tbaa !31
  %52 = load i32, ptr %7, align 4, !tbaa !29
  %53 = trunc i32 %52 to i16
  %54 = load ptr, ptr %5, align 8, !tbaa !4
  %55 = getelementptr inbounds nuw %struct.jit_State, ptr %54, i32 0, i32 0
  %56 = getelementptr inbounds nuw %struct.GCtrace, ptr %55, i32 0, i32 3
  store i16 %53, ptr %56, align 2, !tbaa !30
  %57 = load ptr, ptr %5, align 8, !tbaa !4
  %58 = getelementptr inbounds nuw %struct.jit_State, ptr %57, i32 0, i32 12
  %59 = getelementptr inbounds nuw %struct.IRType1, ptr %58, i32 0, i32 0
  store i8 0, ptr %59, align 2, !tbaa !67
  %60 = load ptr, ptr %5, align 8, !tbaa !4
  %61 = load i32, ptr %6, align 4, !tbaa !29
  call void @lj_ir_rollback(ptr noundef %60, i32 noundef %61)
  store i64 0, ptr %9, align 8, !tbaa !47
  br label %62

62:                                               ; preds = %80, %4
  %63 = load i64, ptr %9, align 8, !tbaa !47
  %64 = icmp slt i64 %63, 16
  br i1 %64, label %65, label %83

65:                                               ; preds = %62
  call void @llvm.lifetime.start.p0(i64 8, ptr %12) #7
  %66 = load ptr, ptr %5, align 8, !tbaa !4
  %67 = getelementptr inbounds nuw %struct.jit_State, ptr %66, i32 0, i32 46
  %68 = load i64, ptr %9, align 8, !tbaa !47
  %69 = getelementptr inbounds [16 x %struct.BPropEntry], ptr %67, i64 0, i64 %68
  store ptr %69, ptr %12, align 8, !tbaa !68
  %70 = load ptr, ptr %12, align 8, !tbaa !68
  %71 = getelementptr inbounds nuw %struct.BPropEntry, ptr %70, i32 0, i32 1
  %72 = load i16, ptr %71, align 2, !tbaa !70
  %73 = zext i16 %72 to i32
  %74 = load i32, ptr %6, align 4, !tbaa !29
  %75 = icmp uge i32 %73, %74
  br i1 %75, label %76, label %79

76:                                               ; preds = %65
  %77 = load ptr, ptr %12, align 8, !tbaa !68
  %78 = getelementptr inbounds nuw %struct.BPropEntry, ptr %77, i32 0, i32 0
  store i16 0, ptr %78, align 4, !tbaa !72
  br label %79

79:                                               ; preds = %76, %65
  call void @llvm.lifetime.end.p0(i64 8, ptr %12) #7
  br label %80

80:                                               ; preds = %79
  %81 = load i64, ptr %9, align 8, !tbaa !47
  %82 = add nsw i64 %81, 1
  store i64 %82, ptr %9, align 8, !tbaa !47
  br label %62, !llvm.loop !73

83:                                               ; preds = %62
  %84 = load i32, ptr %6, align 4, !tbaa !29
  %85 = add i32 %84, -1
  store i32 %85, ptr %6, align 4, !tbaa !29
  br label %86

86:                                               ; preds = %111, %83
  %87 = load i32, ptr %6, align 4, !tbaa !29
  %88 = icmp uge i32 %87, 32769
  br i1 %88, label %89, label %114

89:                                               ; preds = %86
  call void @llvm.lifetime.start.p0(i64 8, ptr %13) #7
  %90 = load ptr, ptr %5, align 8, !tbaa !4
  %91 = getelementptr inbounds nuw %struct.jit_State, ptr %90, i32 0, i32 0
  %92 = getelementptr inbounds nuw %struct.GCtrace, ptr %91, i32 0, i32 7
  %93 = load ptr, ptr %92, align 8, !tbaa !75
  %94 = load i32, ptr %6, align 4, !tbaa !29
  %95 = zext i32 %94 to i64
  %96 = getelementptr inbounds nuw %union.IRIns, ptr %93, i64 %95
  store ptr %96, ptr %13, align 8, !tbaa !76
  %97 = load ptr, ptr %13, align 8, !tbaa !76
  %98 = getelementptr inbounds nuw %struct.anon.0, ptr %97, i32 0, i32 1
  %99 = getelementptr inbounds nuw %struct.IRType1, ptr %98, i32 0, i32 0
  %100 = load i8, ptr %99, align 4, !tbaa !42
  %101 = zext i8 %100 to i32
  %102 = and i32 %101, -65
  %103 = trunc i32 %102 to i8
  store i8 %103, ptr %99, align 4, !tbaa !42
  %104 = load ptr, ptr %13, align 8, !tbaa !76
  %105 = getelementptr inbounds nuw %struct.anon.0, ptr %104, i32 0, i32 1
  %106 = getelementptr inbounds nuw %struct.IRType1, ptr %105, i32 0, i32 0
  %107 = load i8, ptr %106, align 4, !tbaa !42
  %108 = zext i8 %107 to i32
  %109 = and i32 %108, -33
  %110 = trunc i32 %109 to i8
  store i8 %110, ptr %106, align 4, !tbaa !42
  call void @llvm.lifetime.end.p0(i64 8, ptr %13) #7
  br label %111

111:                                              ; preds = %89
  %112 = load i32, ptr %6, align 4, !tbaa !29
  %113 = add i32 %112, -1
  store i32 %113, ptr %6, align 4, !tbaa !29
  br label %86, !llvm.loop !77

114:                                              ; preds = %86
  call void @llvm.lifetime.end.p0(i64 8, ptr %11) #7
  call void @llvm.lifetime.end.p0(i64 8, ptr %10) #7
  call void @llvm.lifetime.end.p0(i64 8, ptr %9) #7
  ret void
}