; Function Attrs: nounwind uwtable
define internal fastcc void @loop_undo(ptr noundef initializes((10, 12), (44, 48), (182, 183)) %0, i32 noundef %1, i32 noundef range(i32 0, 65536) %2, i32 noundef %3) unnamed_addr #0 {
  %5 = getelementptr inbounds nuw i8, ptr %0, i64 48
  %6 = load ptr, ptr %5, align 8, !tbaa !56
  %7 = add nsw i32 %2, -1
  %8 = zext i32 %7 to i64
  %9 = getelementptr inbounds nuw %struct.SnapShot, ptr %6, i64 %8
  %10 = getelementptr inbounds nuw i8, ptr %0, i64 56
  %11 = load ptr, ptr %10, align 8, !tbaa !60
  %12 = getelementptr inbounds nuw i8, ptr %6, i64 10
  %13 = load i8, ptr %12, align 2, !tbaa !57
  %14 = zext i8 %13 to i64
  %15 = getelementptr inbounds nuw i32, ptr %11, i64 %14
  %16 = load i32, ptr %15, align 4, !tbaa !62
  %17 = load i32, ptr %9, align 4, !tbaa !61
  %18 = getelementptr inbounds nuw i8, ptr %9, i64 10
  %19 = load i8, ptr %18, align 2, !tbaa !57
  %20 = zext i8 %19 to i32
  %21 = add i32 %17, %20
  %22 = zext i32 %21 to i64
  %23 = getelementptr inbounds nuw i32, ptr %11, i64 %22
  store i32 %16, ptr %23, align 4, !tbaa !62
  %24 = getelementptr inbounds nuw i8, ptr %0, i64 44
  store i32 %3, ptr %24, align 4, !tbaa !28
  %25 = trunc nuw i32 %2 to i16
  %26 = getelementptr inbounds nuw i8, ptr %0, i64 10
  store i16 %25, ptr %26, align 2, !tbaa !27
  %27 = getelementptr inbounds nuw i8, ptr %0, i64 182
  store i8 0, ptr %27, align 2, !tbaa !67
  tail call void @lj_ir_rollback(ptr noundef %0, i32 noundef %1) #4
  %28 = getelementptr inbounds nuw i8, ptr %0, i64 2852
  br label %32

.preheader:                                       ; preds = %38
  %.030 = add i32 %1, -1
  %29 = icmp ugt i32 %.030, 32768
  br i1 %29, label %.lr.ph, label %._crit_edge

.lr.ph:                                           ; preds = %.preheader
  %30 = getelementptr inbounds nuw i8, ptr %0, i64 32
  %31 = zext i32 %.030 to i64
  br label %40

32:                                               ; preds = %4, %38
  %.02829 = phi i64 [ 0, %4 ], [ %39, %38 ]
  %33 = getelementptr inbounds nuw [16 x %struct.BPropEntry], ptr %28, i64 0, i64 %.02829
  %34 = getelementptr inbounds nuw i8, ptr %33, i64 2
  %35 = load i16, ptr %34, align 2, !tbaa !87
  %36 = zext i16 %35 to i32
  %.not = icmp ugt i32 %1, %36
  br i1 %.not, label %38, label %37

37:                                               ; preds = %32
  store i16 0, ptr %33, align 4, !tbaa !89
  br label %38

38:                                               ; preds = %37, %32
  %39 = add nuw nsw i64 %.02829, 1
  %exitcond.not = icmp eq i64 %39, 16
  br i1 %exitcond.not, label %.preheader, label %32, !llvm.loop !90

40:                                               ; preds = %.lr.ph, %40
  %indvars.iv = phi i64 [ %31, %.lr.ph ], [ %indvars.iv.next, %40 ]
  %41 = load ptr, ptr %30, align 8, !tbaa !75
  %42 = getelementptr inbounds nuw %union.IRIns, ptr %41, i64 %indvars.iv
  %43 = getelementptr inbounds nuw i8, ptr %42, i64 4
  %44 = load i8, ptr %43, align 4, !tbaa !53
  %45 = and i8 %44, -97
  store i8 %45, ptr %43, align 4, !tbaa !53
  %indvars.iv.next = add nsw i64 %indvars.iv, -1
  %indvars = trunc i64 %indvars.iv.next to i32
  %46 = icmp ugt i32 %indvars, 32768
  br i1 %46, label %40, label %._crit_edge, !llvm.loop !91

._crit_edge:                                      ; preds = %40, %.preheader
  ret void
}